target datalayout = "e-m:e-p270:32:32-p271:32:32-p272:64:64-i64:64-i128:128-f80:128-n8:16:32:64-S128"
target triple = "x86_64-pc-linux-gnu"

%"class.icu_77::number::Scale" = type <{ i32, [4 x i8], ptr, i32, [4 x i8] }>

; Function Attrs: mustprogress uwtable
define noundef nonnull align 8 dereferenceable(20) ptr @_ZN6icu_776number5ScaleaSERKS1_(ptr noundef nonnull align 8 dereferenceable(20) %0, ptr noundef nonnull align 8 dereferenceable(20) %1) #1 align 2 personality ptr @__gxx_personality_v0 {
  %3 = alloca ptr, align 8
  %4 = alloca ptr, align 8
  %5 = alloca ptr, align 8
  %6 = alloca i32, align 4
  %7 = alloca ptr, align 8
  %8 = alloca i1, align 1
  %9 = alloca ptr, align 8
  %10 = alloca i32, align 4
  store ptr %0, ptr %4, align 8, !tbaa !23
  store ptr %1, ptr %5, align 8, !tbaa !23
  %11 = load ptr, ptr %4, align 8
  %12 = load ptr, ptr %5, align 8, !tbaa !23
  %13 = icmp eq ptr %11, %12
  br i1 %13, label %14, label %15

14:                                               ; preds = %2
  store ptr %11, ptr %3, align 8
  br label %50

15:                                               ; preds = %2
  %16 = load ptr, ptr %5, align 8, !tbaa !23
  %17 = getelementptr inbounds nuw %"class.icu_77::number::Scale", ptr %16, i32 0, i32 0
  %18 = load i32, ptr %17, align 8, !tbaa !27
  %19 = getelementptr inbounds nuw %"class.icu_77::number::Scale", ptr %11, i32 0, i32 0
  store i32 %18, ptr %19, align 8, !tbaa !27
  %20 = load ptr, ptr %5, align 8, !tbaa !23
  %21 = getelementptr inbounds nuw %"class.icu_77::number::Scale", ptr %20, i32 0, i32 2
  %22 = load ptr, ptr %21, align 8, !tbaa !29
  %23 = icmp ne ptr %22, null
  br i1 %23, label %24, label %43

24:                                               ; preds = %15
  call void @llvm.lifetime.start.p0(i64 4, ptr %6) #10
  store i32 0, ptr %6, align 4, !tbaa !15
  %25 = call noundef ptr @_ZN6icu_777UMemorynwEm(i64 noundef 96) #10
  %26 = icmp eq ptr %25, null
  store i1 false, ptr %8, align 1
  br i1 %26, label %32, label %27

27:                                               ; preds = %24
  store ptr %25, ptr %7, align 8
  store i1 true, ptr %8, align 1
  %28 = load ptr, ptr %5, align 8, !tbaa !23
  %29 = getelementptr inbounds nuw %"class.icu_77::number::Scale", ptr %28, i32 0, i32 2
  %30 = load ptr, ptr %29, align 8, !tbaa !29
  invoke void @_ZN6icu_776number4impl6DecNumC1ERKS2_R10UErrorCode(ptr noundef nonnull align 8 dereferenceable(92) %25, ptr noundef nonnull align 8 dereferenceable(92) %30, ptr noundef nonnull align 4 dereferenceable(4) %6)
          to label %31 unwind label %35

31:                                               ; preds = %27
  br label %32

32:                                               ; preds = %31, %24
  %33 = phi ptr [ %25, %31 ], [ null, %24 ]
  %34 = getelementptr inbounds nuw %"class.icu_77::number::Scale", ptr %11, i32 0, i32 2
  store ptr %33, ptr %34, align 8, !tbaa !29
  call void @llvm.lifetime.end.p0(i64 4, ptr %6) #10
  br label %45

35:                                               ; preds = %27
  %36 = landingpad { ptr, i32 }
          cleanup
  %37 = extractvalue { ptr, i32 } %36, 0
  store ptr %37, ptr %9, align 8
  %38 = extractvalue { ptr, i32 } %36, 1
  store i32 %38, ptr %10, align 4
  %39 = load i1, ptr %8, align 1
  br i1 %39, label %40, label %42

40:                                               ; preds = %35
  %41 = load ptr, ptr %7, align 8
  call void @_ZN6icu_777UMemorydlEPv(ptr noundef %41) #10
  br label %42

42:                                               ; preds = %40, %35
  call void @llvm.lifetime.end.p0(i64 4, ptr %6) #10
  br label %52

43:                                               ; preds = %15
  %44 = getelementptr inbounds nuw %"class.icu_77::number::Scale", ptr %11, i32 0, i32 2
  store ptr null, ptr %44, align 8, !tbaa !29
  br label %45

45:                                               ; preds = %43, %32
  %46 = load ptr, ptr %5, align 8, !tbaa !23
  %47 = getelementptr inbounds nuw %"class.icu_77::number::Scale", ptr %46, i32 0, i32 3
  %48 = load i32, ptr %47, align 8, !tbaa !30
  %49 = getelementptr inbounds nuw %"class.icu_77::number::Scale", ptr %11, i32 0, i32 3
  store i32 %48, ptr %49, align 8, !tbaa !30
  store ptr %11, ptr %3, align 8
  br label %50

50:                                               ; preds = %45, %14
  %51 = load ptr, ptr %3, align 8
  ret ptr %51

52:                                               ; preds = %42
  %53 = load ptr, ptr %9, align 8
  %54 = load i32, ptr %10, align 4
  %55 = insertvalue { ptr, i32 } poison, ptr %53, 0
  %56 = insertvalue { ptr, i32 } %55, i32 %54, 1
  resume { ptr, i32 } %56
}