; Function Attrs: mustprogress uwtable
define noundef nonnull align 8 dereferenceable(20) ptr @_ZN6icu_776number5ScaleaSERKS1_(ptr noundef nonnull returned writeonly align 8 dereferenceable(20) %0, ptr noundef nonnull readonly align 8 dereferenceable(20) %1) local_unnamed_addr #1 align 2 personality ptr @__gxx_personality_v0 {
  %3 = alloca i32, align 4
  %4 = icmp eq ptr %0, %1
  br i1 %4, label %24, label %5

5:                                                ; preds = %2
  %6 = load i32, ptr %1, align 8, !tbaa !15
  store i32 %6, ptr %0, align 8, !tbaa !15
  %7 = getelementptr inbounds nuw i8, ptr %1, i64 8
  %8 = load ptr, ptr %7, align 8, !tbaa !18
  %.not = icmp eq ptr %8, null
  br i1 %.not, label %18, label %9

9:                                                ; preds = %5
  call void @llvm.lifetime.start.p0(i64 4, ptr nonnull %3) #13
  store i32 0, ptr %3, align 4, !tbaa !13
  %10 = tail call noundef ptr @_ZN6icu_777UMemorynwEm(i64 noundef 96) #13
  %11 = icmp eq ptr %10, null
  br i1 %11, label %14, label %12

12:                                               ; preds = %9
  %13 = load ptr, ptr %7, align 8, !tbaa !18
  invoke void @_ZN6icu_776number4impl6DecNumC1ERKS2_R10UErrorCode(ptr noundef nonnull align 8 dereferenceable(92) %10, ptr noundef nonnull align 8 dereferenceable(92) %13, ptr noundef nonnull align 4 dereferenceable(4) %3)
          to label %14 unwind label %16

14:                                               ; preds = %12, %9
  %15 = getelementptr inbounds nuw i8, ptr %0, i64 8
  store ptr %10, ptr %15, align 8, !tbaa !18
  call void @llvm.lifetime.end.p0(i64 4, ptr nonnull %3) #13
  br label %20

16:                                               ; preds = %12
  %17 = landingpad { ptr, i32 }
          cleanup
  call void @_ZN6icu_777UMemorydlEPv(ptr noundef nonnull %10) #13
  call void @llvm.lifetime.end.p0(i64 4, ptr nonnull %3) #13
  resume { ptr, i32 } %17

18:                                               ; preds = %5
  %19 = getelementptr inbounds nuw i8, ptr %0, i64 8
  store ptr null, ptr %19, align 8, !tbaa !18
  br label %20

20:                                               ; preds = %18, %14
  %21 = getelementptr inbounds nuw i8, ptr %1, i64 16
  %22 = load i32, ptr %21, align 8, !tbaa !19
  %23 = getelementptr inbounds nuw i8, ptr %0, i64 16
  store i32 %22, ptr %23, align 8, !tbaa !19
  br label %24

24:                                               ; preds = %2, %20
  ret ptr %0
}